target datalayout = "e-m:e-p270:32:32-p271:32:32-p272:64:64-i64:64-i128:128-f80:128-n8:16:32:64-S128"
target triple = "x86_64-pc-linux-gnu"

%struct.mbedtls_psa_aead_operation_t = type { i32, i16, i8, i8, %union.anon }
%union.anon = type { %struct.mbedtls_gcm_context }
%struct.mbedtls_gcm_context = type { %struct.mbedtls_cipher_context_t, [16 x [2 x i64]], i64, i64, [16 x i8], [16 x i8], [16 x i8], i8, i8 }
%struct.mbedtls_cipher_context_t = type { ptr, i32, i32, ptr, ptr, [16 x i8], i64, [16 x i8], i64, ptr, ptr }

; Function Attrs: nounwind uwtable
define hidden i32 @mbedtls_psa_aead_set_lengths(ptr noundef %0, i64 noundef %1, i64 noundef %2) #0 {
  %4 = alloca i32, align 4
  %5 = alloca ptr, align 8
  %6 = alloca i64, align 8
  %7 = alloca i64, align 8
  store ptr %0, ptr %5, align 8, !tbaa !20
  store i64 %1, ptr %6, align 8, !tbaa !10
  store i64 %2, ptr %7, align 8, !tbaa !10
  %8 = load ptr, ptr %5, align 8, !tbaa !20
  %9 = getelementptr inbounds nuw %struct.mbedtls_psa_aead_operation_t, ptr %8, i32 0, i32 0
  %10 = load i32, ptr %9, align 8, !tbaa !19
  %11 = icmp eq i32 %10, 89129216
  br i1 %11, label %12, label %23

12:                                               ; preds = %3
  %13 = load ptr, ptr %5, align 8, !tbaa !20
  %14 = getelementptr inbounds nuw %struct.mbedtls_psa_aead_operation_t, ptr %13, i32 0, i32 4
  %15 = load i64, ptr %6, align 8, !tbaa !10
  %16 = load i64, ptr %7, align 8, !tbaa !10
  %17 = load ptr, ptr %5, align 8, !tbaa !20
  %18 = getelementptr inbounds nuw %struct.mbedtls_psa_aead_operation_t, ptr %17, i32 0, i32 3
  %19 = load i8, ptr %18, align 1, !tbaa !16
  %20 = zext i8 %19 to i64
  %21 = call i32 @mbedtls_ccm_set_lengths(ptr noundef %14, i64 noundef %15, i64 noundef %16, i64 noundef %20)
  %22 = call i32 @mbedtls_to_psa_error(i32 noundef %21)
  store i32 %22, ptr %4, align 4
  br label %24

23:                                               ; preds = %3
  store i32 0, ptr %4, align 4
  br label %24

24:                                               ; preds = %23, %12
  %25 = load i32, ptr %4, align 4
  ret i32 %25
}