; Function Attrs: nounwind uwtable
define hidden i32 @mbedtls_psa_aead_set_lengths(ptr noundef %0, i64 noundef %1, i64 noundef %2) local_unnamed_addr #0 {
  %4 = load i32, ptr %0, align 8, !tbaa !9
  %5 = icmp eq i32 %4, 89129216
  br i1 %5, label %6, label %13

6:                                                ; preds = %3
  %7 = getelementptr inbounds nuw i8, ptr %0, i64 8
  %8 = getelementptr inbounds nuw i8, ptr %0, i64 7
  %9 = load i8, ptr %8, align 1, !tbaa !3
  %10 = zext i8 %9 to i64
  %11 = tail call i32 @mbedtls_ccm_set_lengths(ptr noundef nonnull %7, i64 noundef %1, i64 noundef %2, i64 noundef %10) #4
  %12 = tail call i32 @mbedtls_to_psa_error(i32 noundef %11) #4
  br label %13

13:                                               ; preds = %3, %6
  %.0 = phi i32 [ %12, %6 ], [ 0, %3 ]
  ret i32 %.0
}